; Function Attrs: nounwind uwtable
define internal zeroext i1 @cf_he_data_pending(ptr noundef readonly captures(none) %0, ptr noundef %1) #0 {
  %3 = getelementptr inbounds nuw i8, ptr %0, i64 36
  %4 = load i8, ptr %3, align 4
  %5 = and i8 %4, 1
  %.not = icmp eq i8 %5, 0
  br i1 %.not, label %.preheader, label %9

.preheader:                                       ; preds = %2
  %6 = getelementptr inbounds nuw i8, ptr %0, i64 16
  %7 = load ptr, ptr %6, align 8, !tbaa !107
  %8 = getelementptr inbounds nuw i8, ptr %7, i64 32
  br label %16

9:                                                ; preds = %2
  %10 = getelementptr inbounds nuw i8, ptr %0, i64 8
  %11 = load ptr, ptr %10, align 8, !tbaa !162
  %12 = load ptr, ptr %11, align 8, !tbaa !114
  %13 = getelementptr inbounds nuw i8, ptr %12, i64 64
  %14 = load ptr, ptr %13, align 8, !tbaa !176
  %15 = tail call zeroext i1 %14(ptr noundef nonnull %11, ptr noundef %1) #10
  br label %.loopexit

16:                                               ; preds = %.backedge, %.preheader
  %17 = phi i1 [ true, %.preheader ], [ false, %.backedge ]
  %.01622 = phi i64 [ 0, %.preheader ], [ 1, %.backedge ]
  %18 = getelementptr inbounds nuw [2 x ptr], ptr %8, i64 0, i64 %.01622
  %19 = load ptr, ptr %18, align 8, !tbaa !117
  %.not19 = icmp eq ptr %19, null
  br i1 %.not19, label %28, label %20

20:                                               ; preds = %16
  %21 = getelementptr inbounds nuw i8, ptr %19, i64 40
  %22 = load ptr, ptr %21, align 8, !tbaa !119
  %.not20 = icmp eq ptr %22, null
  br i1 %.not20, label %28, label %23

23:                                               ; preds = %20
  %24 = load ptr, ptr %22, align 8, !tbaa !114
  %25 = getelementptr inbounds nuw i8, ptr %24, i64 64
  %26 = load ptr, ptr %25, align 8, !tbaa !176
  %27 = tail call zeroext i1 %26(ptr noundef nonnull %22, ptr noundef %1) #10
  %.not23 = xor i1 %17, true
  %brmerge = or i1 %27, %.not23
  br i1 %brmerge, label %.loopexit, label %.backedge

28:                                               ; preds = %20, %16
  br i1 %17, label %.backedge, label %.loopexit

.backedge:                                        ; preds = %28, %23
  br label %16, !llvm.loop !177

.loopexit:                                        ; preds = %28, %23, %9
  %.0 = phi i1 [ %15, %9 ], [ %27, %23 ], [ false, %28 ]
  ret i1 %.0
}